target datalayout = "e-m:e-p270:32:32-p271:32:32-p272:64:64-i64:64-i128:128-f80:128-n8:16:32:64-S128"
target triple = "x86_64-pc-linux-gnu"

%struct.SEIRawContentLightLevelInfo = type { i16, i16 }

@.str.1408 = private unnamed_addr constant [32 x i8] c"Content Light Level Information\00", align 1
@.str.1409 = private unnamed_addr constant [24 x i8] c"max_content_light_level\00", align 1
@.str.1410 = private unnamed_addr constant [28 x i8] c"max_pic_average_light_level\00", align 1

; Function Attrs: nounwind uwtable
define internal i32 @cbs_sei_read_content_light_level_info(ptr noundef %0, ptr noundef %1, ptr noundef %2, ptr noundef %3) #0 {
  %5 = alloca i32, align 4
  %6 = alloca ptr, align 8
  %7 = alloca ptr, align 8
  %8 = alloca ptr, align 8
  %9 = alloca ptr, align 8
  %10 = alloca i32, align 4
  %11 = alloca i32, align 4
  %12 = alloca i32, align 4
  %13 = alloca i32, align 4
  store ptr %0, ptr %6, align 8, !tbaa !4
  store ptr %1, ptr %7, align 8, !tbaa !196
  store ptr %2, ptr %8, align 8, !tbaa !2030
  store ptr %3, ptr %9, align 8, !tbaa !1718
  call void @llvm.lifetime.start.p0(i64 4, ptr %10) #11
  br label %14

14:                                               ; preds = %4
  %15 = load ptr, ptr %6, align 8, !tbaa !4
  call void @ff_cbs_trace_header(ptr noundef %15, ptr noundef @.str.1408)
  br label %16

16:                                               ; preds = %14
  br label %17

17:                                               ; preds = %16
  br label %18

18:                                               ; preds = %17
  call void @llvm.lifetime.start.p0(i64 4, ptr %11) #11
  br label %19

19:                                               ; preds = %18
  %20 = load ptr, ptr %6, align 8, !tbaa !4
  %21 = load ptr, ptr %7, align 8, !tbaa !196
  %22 = call i32 @ff_cbs_read_simple_unsigned(ptr noundef %20, ptr noundef %21, i32 noundef 16, ptr noundef @.str.1409, ptr noundef %11)
  store i32 %22, ptr %10, align 4, !tbaa !11
  %23 = load i32, ptr %10, align 4, !tbaa !11
  %24 = icmp slt i32 %23, 0
  br i1 %24, label %25, label %27

25:                                               ; preds = %19
  %26 = load i32, ptr %10, align 4, !tbaa !11
  store i32 %26, ptr %5, align 4
  store i32 1, ptr %12, align 4
  br label %34

27:                                               ; preds = %19
  br label %28

28:                                               ; preds = %27
  br label %29

29:                                               ; preds = %28
  %30 = load i32, ptr %11, align 4, !tbaa !11
  %31 = trunc i32 %30 to i16
  %32 = load ptr, ptr %8, align 8, !tbaa !2030
  %33 = getelementptr inbounds nuw %struct.SEIRawContentLightLevelInfo, ptr %32, i32 0, i32 0
  store i16 %31, ptr %33, align 2, !tbaa !2032
  store i32 0, ptr %12, align 4
  br label %34

34:                                               ; preds = %29, %25
  call void @llvm.lifetime.end.p0(i64 4, ptr %11) #11
  %35 = load i32, ptr %12, align 4
  switch i32 %35, label %60 [
    i32 0, label %36
  ]

36:                                               ; preds = %34
  br label %37

37:                                               ; preds = %36
  br label %38

38:                                               ; preds = %37
  br label %39

39:                                               ; preds = %38
  call void @llvm.lifetime.start.p0(i64 4, ptr %13) #11
  br label %40

40:                                               ; preds = %39
  %41 = load ptr, ptr %6, align 8, !tbaa !4
  %42 = load ptr, ptr %7, align 8, !tbaa !196
  %43 = call i32 @ff_cbs_read_simple_unsigned(ptr noundef %41, ptr noundef %42, i32 noundef 16, ptr noundef @.str.1410, ptr noundef %13)
  store i32 %43, ptr %10, align 4, !tbaa !11
  %44 = load i32, ptr %10, align 4, !tbaa !11
  %45 = icmp slt i32 %44, 0
  br i1 %45, label %46, label %48

46:                                               ; preds = %40
  %47 = load i32, ptr %10, align 4, !tbaa !11
  store i32 %47, ptr %5, align 4
  store i32 1, ptr %12, align 4
  br label %55

48:                                               ; preds = %40
  br label %49

49:                                               ; preds = %48
  br label %50

50:                                               ; preds = %49
  %51 = load i32, ptr %13, align 4, !tbaa !11
  %52 = trunc i32 %51 to i16
  %53 = load ptr, ptr %8, align 8, !tbaa !2030
  %54 = getelementptr inbounds nuw %struct.SEIRawContentLightLevelInfo, ptr %53, i32 0, i32 1
  store i16 %52, ptr %54, align 2, !tbaa !2034
  store i32 0, ptr %12, align 4
  br label %55

55:                                               ; preds = %50, %46
  call void @llvm.lifetime.end.p0(i64 4, ptr %13) #11
  %56 = load i32, ptr %12, align 4
  switch i32 %56, label %60 [
    i32 0, label %57
  ]

57:                                               ; preds = %55
  br label %58

58:                                               ; preds = %57
  br label %59

59:                                               ; preds = %58
  store i32 0, ptr %5, align 4
  store i32 1, ptr %12, align 4
  br label %60

60:                                               ; preds = %59, %55, %34
  call void @llvm.lifetime.end.p0(i64 4, ptr %10) #11
  %61 = load i32, ptr %5, align 4
  ret i32 %61
}

; Function Attrs: nounwind uwtable
define internal i32 @cbs_sei_read_content_light_level_info_internal(ptr noundef %0, ptr noundef %1, ptr noundef %2, ptr noundef %3) #0 {
  %5 = alloca ptr, align 8
  %6 = alloca ptr, align 8
  %7 = alloca ptr, align 8
  %8 = alloca ptr, align 8
  store ptr %0, ptr %5, align 8, !tbaa !4
  store ptr %1, ptr %6, align 8, !tbaa !196
  store ptr %2, ptr %7, align 8, !tbaa !167
  store ptr %3, ptr %8, align 8, !tbaa !1718
  %9 = load ptr, ptr %5, align 8, !tbaa !4
  %10 = load ptr, ptr %6, align 8, !tbaa !196
  %11 = load ptr, ptr %7, align 8, !tbaa !167
  %12 = load ptr, ptr %8, align 8, !tbaa !1718
  %13 = call i32 @cbs_sei_read_content_light_level_info(ptr noundef %9, ptr noundef %10, ptr noundef %11, ptr noundef %12)
  ret i32 %13
}