; Function Attrs: nounwind uwtable
define internal range(i32 -2147483648, 1) i32 @cbs_sei_read_content_light_level_info_internal(ptr noundef %0, ptr noundef %1, ptr noundef writeonly captures(none) %2, ptr readnone captures(none) %3) #0 {
  %5 = alloca i32, align 4
  %6 = alloca i32, align 4
  tail call void @ff_cbs_trace_header(ptr noundef %0, ptr noundef nonnull @.str.1408) #11
  call void @llvm.lifetime.start.p0(i64 4, ptr nonnull %5) #11
  %7 = call i32 @ff_cbs_read_simple_unsigned(ptr noundef %0, ptr noundef %1, i32 noundef 16, ptr noundef nonnull @.str.1409, ptr noundef nonnull %5) #11
  %8 = icmp sgt i32 %7, -1
  br i1 %8, label %9, label %.critedge.i

9:                                                ; preds = %4
  %10 = load i32, ptr %5, align 4, !tbaa !63
  %11 = trunc i32 %10 to i16
  store i16 %11, ptr %2, align 2, !tbaa !1850
  call void @llvm.lifetime.end.p0(i64 4, ptr nonnull %5) #11
  call void @llvm.lifetime.start.p0(i64 4, ptr nonnull %6) #11
  %12 = call i32 @ff_cbs_read_simple_unsigned(ptr noundef %0, ptr noundef %1, i32 noundef 16, ptr noundef nonnull @.str.1410, ptr noundef nonnull %6) #11
  %13 = icmp sgt i32 %12, -1
  br i1 %13, label %14, label %18

14:                                               ; preds = %9
  %15 = load i32, ptr %6, align 4, !tbaa !63
  %16 = trunc i32 %15 to i16
  %17 = getelementptr inbounds nuw i8, ptr %2, i64 2
  store i16 %16, ptr %17, align 2, !tbaa !1852
  br label %18

18:                                               ; preds = %14, %9
  %spec.select.i = phi i32 [ 0, %14 ], [ %12, %9 ]
  call void @llvm.lifetime.end.p0(i64 4, ptr nonnull %6) #11
  br label %cbs_sei_read_content_light_level_info.exit

.critedge.i:                                      ; preds = %4
  call void @llvm.lifetime.end.p0(i64 4, ptr nonnull %5) #11
  br label %cbs_sei_read_content_light_level_info.exit

cbs_sei_read_content_light_level_info.exit:       ; preds = %18, %.critedge.i
  %.115.i = phi i32 [ %7, %.critedge.i ], [ %spec.select.i, %18 ]
  ret i32 %.115.i
}